(lp0
(dp1
Vdomain
p2
V.gumtree.com.au
p3
sVname
p4
VmachId
p5
sVvalue
p6
Vv4GyhlSpOidBhRn3n60_Hu7O2n9I9LjbOWwGnkUdQp6svJFSRW6GnVSWE1DR_3jQGE80r587V_QIp2SawCil_MN91iJvgdwjV_ZP
p7
sVexpiry
p8
I3607901237
sVpath
p9
V/
p10
sVhttpOnly
p11
I00
sVsecure
p12
I00
sa(dp13
Vdomain
p14
V.gumtree.com.au
p15
sVname
p16
Vbs
p17
sVvalue
p18
V%7B%22st%22%3A%7B%7D%7D
p19
sVexpiry
p20
NsVpath
p21
g10
sVhttpOnly
p22
I00
sVsecure
p23
I00
sa(dp24
Vdomain
p25
V.gumtree.com.au
p26
sVname
p27
Vup
p28
sVvalue
p29
V%7B%22ln%22%3A%22454407082%22%2C%22ls%22%3A%22l%3D0%26r%3D0%26sv%3DLIST%26sf%3Ddate%22%7D
p30
sVexpiry
p31
I1475969590
sVpath
p32
g10
sVhttpOnly
p33
I00
sVsecure
p34
I00
sa(dp35
Vdomain
p36
V.gumtree.com.au
p37
sVname
p38
VoptimizelyEndUserId
p39
sVvalue
p40
Voeu1460417590418r0.8840553159287168
p41
sVexpiry
p42
I1775777590
sVpath
p43
g10
sVhttpOnly
p44
I00
sVsecure
p45
I00
sa(dp46
Vdomain
p47
V.gumtree.com.au
p48
sVname
p49
V_gat
p50
sVvalue
p51
V1
p52
sVexpiry
p53
I1460418191
sVpath
p54
g10
sVhttpOnly
p55
I00
sVsecure
p56
I00
sa(dp57
Vdomain
p58
V.gumtree.com.au
p59
sVname
p60
V__utmt_siteTracker
p61
sVvalue
p62
g52
sVexpiry
p63
I1460418191
sVpath
p64
g10
sVhttpOnly
p65
I00
sVsecure
p66
I00
sa(dp67
Vdomain
p68
V.gumtree.com.au
p69
sVname
p70
V__gads
p71
sVvalue
p72
VID=13000886e0cf9dda:T=1460417591:S=ALNI_Mbw9oZHMAgLDAoRdYeN8fL-iiEjZw
p73
sVexpiry
p74
I1523489591
sVpath
p75
g10
sVhttpOnly
p76
I00
sVsecure
p77
I00
sa(dp78
Vdomain
p79
Vwww.gumtree.com.au
p80
sVname
p81
VOX_plg
p82
sVvalue
p83
Vswf|shk|pm
p84
sVexpiry
p85
NsVpath
p86
g10
sVhttpOnly
p87
I00
sVsecure
p88
I00
sa(dp89
Vdomain
p90
Vwww.gumtree.com.au
p91
sVname
p92
Vsc
p93
sVvalue
p94
VQqm09mwsXaCnMbQYGG0e
p95
sVexpiry
p96
I1460419411
sVpath
p97
g10
sVhttpOnly
p98
I00
sVsecure
p99
I00
sa(dp100
Vdomain
p101
V.gumtree.com.au
p102
sVname
p103
Vsid2
p104
sVvalue
p105
V1f8b080000000000000015c9b10ac2301000d05fb95197cb5dd2c4d32e71d1225527c14da456098606aa29c1af57e16d8f891c8b96ca78b6849a0c6a6614ebfd3e7d428c576591607666aea10d432e50c45d5c55c338ad8c20cd61db77cfa43431fd306cc2d8df5351fff4b9d565fd7e1c87c5cbe0291e764dbe2dd51780d8242f76000000
p106
sVexpiry
p107
I1775777710
sVpath
p108
g10
sVhttpOnly
p109
I01
sVsecure
p110
I00
sa(dp111
Vdomain
p112
V.gumtree.com.au
p113
sVname
p114
VoptimizelySegments
p115
sVvalue
p116
V%7B%222153921328%22%3A%22none%22%2C%222181970141%22%3A%22ff%22%2C%222154850398%22%3A%22direct%22%2C%222179050143%22%3A%22false%22%7D
p117
sVexpiry
p118
I1775777711
sVpath
p119
g10
sVhttpOnly
p120
I00
sVsecure
p121
I00
sa(dp122
Vdomain
p123
V.gumtree.com.au
p124
sVname
p125
VoptimizelyBuckets
p126
sVvalue
p127
V%7B%7D
p128
sVexpiry
p129
I1775777711
sVpath
p130
g10
sVhttpOnly
p131
I00
sVsecure
p132
I00
sa(dp133
Vdomain
p134
V.gumtree.com.au
p135
sVname
p136
VoptimizelyPendingLogEvents
p137
sVvalue
p138
V%5B%5D
p139
sVexpiry
p140
I1460417726
sVpath
p141
g10
sVhttpOnly
p142
I00
sVsecure
p143
I00
sa(dp144
Vdomain
p145
V.gumtree.com.au
p146
sVname
p147
Vcrtg_rta
p148
sVvalue
p149
Vcto_puma_m_320120%3D1%3B
p150
sVexpiry
p151
I1463009710
sVpath
p152
g10
sVhttpOnly
p153
I00
sVsecure
p154
I00
sa(dp155
Vdomain
p156
V.gumtree.com.au
p157
sVname
p158
V__utma
p159
sVvalue
p160
V160852194.336885780.1460417591.1460417591.1460417591.1
p161
sVexpiry
p162
I1523489711
sVpath
p163
g10
sVhttpOnly
p164
I00
sVsecure
p165
I00
sa(dp166
Vdomain
p167
V.gumtree.com.au
p168
sVname
p169
V__utmb
p170
sVvalue
p171
V160852194.3.10.1460417591
p172
sVexpiry
p173
I1460419511
sVpath
p174
g10
sVhttpOnly
p175
I00
sVsecure
p176
I00
sa(dp177
Vdomain
p178
V.gumtree.com.au
p179
sVname
p180
V__utmc
p181
sVvalue
p182
V160852194
p183
sVexpiry
p184
NsVpath
p185
g10
sVhttpOnly
p186
I00
sVsecure
p187
I00
sa(dp188
Vdomain
p189
V.gumtree.com.au
p190
sVname
p191
V__utmz
p192
sVvalue
p193
V160852194.1460417591.1.1.utmcsr=(direct)|utmccn=(direct)|utmcmd=(none)
p194
sVexpiry
p195
I1476185711
sVpath
p196
g10
sVhttpOnly
p197
I00
sVsecure
p198
I00
sa(dp199
Vdomain
p200
V.gumtree.com.au
p201
sVname
p202
V_ga
p203
sVvalue
p204
VGA1.3.336885780.1460417591
p205
sVexpiry
p206
I1523489711
sVpath
p207
g10
sVhttpOnly
p208
I00
sVsecure
p209
I00
sa(dp210
Vdomain
p211
Vwww.gumtree.com.au
p212
sVname
p213
Vki_t
p214
sVvalue
p215
V1460417611727%3B1460417611727%3B1460417713621%3B1%3B3
p216
sVexpiry
p217
I1618184113
sVpath
p218
g10
sVhttpOnly
p219
I00
sVsecure
p220
I00
sa(dp221
Vdomain
p222
Vwww.gumtree.com.au
p223
sVname
p224
Vki_r
p225
sVvalue
p226
V
p227
sVexpiry
p228
I1618184113
sVpath
p229
g10
sVhttpOnly
p230
I00
sVsecure
p231
I00
sa.