(lp0
(dp1
S'domain'
p2
S'.gumtree.com.au'
p3
sS'name'
p4
S'__gads'
p5
sS'value'
p6
S'ID=9a64e27d640adb3c:T=1455142235:S=ALNI_MbdcLxf_snQAs9jFmyhKuO0BLTsRw\r\n'
p7
sS'expiry'
p8
S'1518214235'
p9
sS'path'
p10
S'/'
p11
sS'httpOnly'
p12
S'TRUE'
p13
sS'secure'
p14
S'FALSE'
p15
sa(dp16
g2
S'.gumtree.com.au'
p17
sg4
S'__utma'
p18
sg6
S'160852194.1718054342.1455142235.1461028507.1461030595.29\r\n'
p19
sg8
S'1524102618'
p20
sg10
g11
sg12
S'TRUE'
p21
sg14
S'FALSE'
p22
sa(dp23
g2
S'.gumtree.com.au'
p24
sg4
S'__utmb'
p25
sg6
S'160852194.6.9.1461030618137\r\n'
p26
sg8
S'1461032418'
p27
sg10
g11
sg12
S'TRUE'
p28
sg14
S'FALSE'
p29
sa(dp30
g2
S'.gumtree.com.au'
p31
sg4
S'__utmt_siteTracker'
p32
sg6
S'1\r\n'
p33
sg8
S'1461031194'
p34
sg10
g11
sg12
S'TRUE'
p35
sg14
S'FALSE'
p36
sa(dp37
g2
S'.gumtree.com.au'
p38
sg4
S'__utmz'
p39
sg6
S'160852194.1460414767.13.3.utmcsr=google|utmccn=(organic)|utmcmd=organic|utmctr=(not%20provided)\r\n'
p40
sg8
S'1476798618'
p41
sg10
g11
sg12
S'TRUE'
p42
sg14
S'FALSE'
p43
sa(dp44
g2
S'.gumtree.com.au'
p45
sg4
S'_ga'
p46
sg6
S'GA1.3.1718054342.1455142235\r\n'
p47
sg8
S'1524102613'
p48
sg10
g11
sg12
S'TRUE'
p49
sg14
S'FALSE'
p50
sa(dp51
g2
S'.gumtree.com.au'
p52
sg4
S'_gat'
p53
sg6
S'1\r\n'
p54
sg8
S'1461031194'
p55
sg10
g11
sg12
S'TRUE'
p56
sg14
S'FALSE'
p57
sa(dp58
g2
S'.gumtree.com.au'
p59
sg4
S'crtg_rta'
p60
sg6
S'cto_puma_m_320120%3D1%3B\r\n'
p61
sg8
S'1463622610'
p62
sg10
g11
sg12
S'TRUE'
p63
sg14
S'FALSE'
p64
sa(dp65
g2
S'.gumtree.com.au'
p66
sg4
S'machId'
p67
sg6
S'awzjQSIlCivAOUoSMhzx3qliTbQKFivqvuHsY6B-wXpD6iWogeMFL9594Zlw_6GDQ_IJHKOfpndZ0sN_-08r6AWlHhDBTDiZbngy\r\n'
p68
sg8
S'3603832831'
p69
sg10
g11
sg12
S'TRUE'
p70
sg14
S'FALSE'
p71
sa(dp72
g2
S'.gumtree.com.au'
p73
sg4
S'optimizelyBuckets'
p74
sg6
S'%7B%224912070480%22%3A%224929670362%22%2C%224934230049%22%3A%224927040030%22%7D\r\n'
p75
sg8
S'1776390611'
p76
sg10
g11
sg12
S'TRUE'
p77
sg14
S'FALSE'
p78
sa(dp79
g2
S'.gumtree.com.au'
p80
sg4
S'optimizelyEndUserId'
p81
sg6
S'oeu1455142235233r0.0480117384070029\r\n'
p82
sg8
S'1770502235'
p83
sg10
g11
sg12
S'TRUE'
p84
sg14
S'FALSE'
p85
sa(dp86
g2
S'.gumtree.com.au'
p87
sg4
S'optimizelyPendingLogEvents'
p88
sg6
S'%5B%5D\r\n'
p89
sg8
S'1461030631'
p90
sg10
g11
sg12
S'TRUE'
p91
sg14
S'FALSE'
p92
sa(dp93
g2
S'.gumtree.com.au'
p94
sg4
S'optimizelySegments'
p95
sg6
S'%7B%222153921328%22%3A%22none%22%2C%222181970141%22%3A%22ff%22%2C%222154850398%22%3A%22referral%22%2C%222179050143%22%3A%22false%22%7D\r\n'
p96
sg8
S'1776390611'
p97
sg10
g11
sg12
S'TRUE'
p98
sg14
S'FALSE'
p99
sa(dp100
g2
S'.gumtree.com.au'
p101
sg4
S'sid2'
p102
sg6
S'1f8b080000000000000015c9b10ac2301000d05fb95197cb5dd2c4d32e71d1225527c14da456098606aa29c1af57e16d8f891c8b96ca78b6849a0c6a6614ebfd3e7d428c576591607666aea10d432e50c45d5c55c338ad8c20cd61db77cfa43431fd306cc2d8df5351fff4b9d565fd7e1c87c5cbe0291e764dbe2dd51780d8242f76000000\r\n'
p103
sg8
S'1775777131'
p104
sg10
g11
sg12
S'TRUE'
p105
sg14
S'FALSE'
p106
sa(dp107
g2
S'.gumtree.com.au'
p108
sg4
S'up'
p109
sg6
S'%7B%22ln%22%3A%22490412916%22%2C%22ls%22%3A%22l%3D3002977%26c%3D20073%26r%3D50%26sv%3DLIST%26sf%3Ddate%22%2C%22rva%22%3A%221109832514%2C1098268091%2C1109166381%2C1107976705%2C1106556924%2C1105165683%2C1103182368%2C1098515723%2C1109979279%2C1109645227%2C1093111121%2C1109438526%2C1108709750%2C1105582095%2C1105126173%2C1104943006%2C1109091077%22%2C%22lbh%22%3A%22l%3D0%26c%3D9299%26r%3D0%26sv%3DLIST%26sf%3Ddate%7Cl%3D3002977%26p%3D3%26c%3D18468%26r%3D0%26sv%3DLIST%26sf%3Ddate%7Cl%3D3008838%26k%3Dhard%2520drive%26c%3D21112%26r%3D0%26sv%3DLIST%26sf%3Ddate%7Cl%3D3002977%26c%3D20073%26r%3D50%26sv%3DLIST%26sf%3Ddate%22%2C%22sps%22%3A%2225%22%2C%22lsh%22%3A%22l%3D3008838%26k%3Dsurface%26c%3D20046%26r%3D0%26sv%3DLIST%26sf%3Ddate%7Cl%3D3008838%26k%3Dhard%2520drive%26c%3D18309%26r%3D0%26sv%3DLIST%26sf%3Ddate%7Cl%3D3008838%26k%3Dhard%2520drive%26c%3D21112%26r%3D0%26sv%3DLIST%26sf%3Ddate%7Cl%3D3002977%26k%3Dtablet%26r%3D50%26sv%3DLIST%26sf%3Ddate%7Cl%3D3002977%26k%3Dgalaxy%2520tablet%26c%3D20045%26r%3D50%26sv%3DLIST%26sf%3Ddate%22%7D\r\n'
p110
sg8
S'1476582612'
p111
sg10
g11
sg12
S'TRUE'
p112
sg14
S'FALSE'
p113
sa(dp114
g2
S'.gumtree.com.au'
p115
sg4
S'wl'
p116
sg6
S'%7B%22l%22%3A%22%22%7D\r\n'
p117
sg8
S'1472334416'
p118
sg10
g11
sg12
S'TRUE'
p119
sg14
S'FALSE'
p120
sa.