(lp0
(dp1
Vdomain
p2
V.gumtree.com.au
p3
sVname
p4
VmachId
p5
sVvalue
p6
VQg3xF5KNNgj1VoTn6Avb-VWtBluQKdUbkO70PMoSCjJFilLoHaYrEL4Rcxpt7HOqFFIHbNvEupbUsgPs3ivPqOlCnUi6CZm6IUQ
p7
sVexpiry
p8
I3607030941
sVpath
p9
V/
p10
sVhttpOnly
p11
I00
sVsecure
p12
I00
sa(dp13
Vdomain
p14
V.gumtree.com.au
p15
sVname
p16
Vbs
p17
sVvalue
p18
V%7B%22st%22%3A%7B%7D%7D
p19
sVexpiry
p20
NsVpath
p21
g10
sVhttpOnly
p22
I00
sVsecure
p23
I00
sa(dp24
Vdomain
p25
V.gumtree.com.au
p26
sVname
p27
Vup
p28
sVvalue
p29
V%7B%22ln%22%3A%22491800726%22%2C%22ls%22%3A%22l%3D0%26r%3D0%26sv%3DLIST%26sf%3Ddate%22%7D
p30
sVexpiry
p31
I1475099294
sVpath
p32
g10
sVhttpOnly
p33
I00
sVsecure
p34
I00
sa(dp35
Vdomain
p36
V.gumtree.com.au
p37
sVname
p38
VoptimizelyEndUserId
p39
sVvalue
p40
Voeu1459547294810r0.8034212301631926
p41
sVexpiry
p42
I1774907294
sVpath
p43
g10
sVhttpOnly
p44
I00
sVsecure
p45
I00
sa(dp46
Vdomain
p47
V.gumtree.com.au
p48
sVname
p49
V_gat
p50
sVvalue
p51
V1
p52
sVexpiry
p53
I1459547895
sVpath
p54
g10
sVhttpOnly
p55
I00
sVsecure
p56
I00
sa(dp57
Vdomain
p58
V.gumtree.com.au
p59
sVname
p60
V__gads
p61
sVvalue
p62
VID=acff68089d0449d5:T=1459550363:S=ALNI_MbD5-Weqh5C9oq85XwcAUgGxs79UQ
p63
sVexpiry
p64
I1522622363
sVpath
p65
g10
sVhttpOnly
p66
I00
sVsecure
p67
I00
sa(dp68
Vdomain
p69
V.gumtree.com.au
p70
sVname
p71
V__utmc
p72
sVvalue
p73
V160852194
p74
sVexpiry
p75
NsVpath
p76
g10
sVhttpOnly
p77
I00
sVsecure
p78
I00
sa(dp79
Vdomain
p80
V.gumtree.com.au
p81
sVname
p82
V__utmt_siteTracker
p83
sVvalue
p84
g52
sVexpiry
p85
I1459547896
sVpath
p86
g10
sVhttpOnly
p87
I00
sVsecure
p88
I00
sa(dp89
Vdomain
p90
Vwww.gumtree.com.au
p91
sVname
p92
VOX_plg
p93
sVvalue
p94
Vpm
p95
sVexpiry
p96
NsVpath
p97
g10
sVhttpOnly
p98
I00
sVsecure
p99
I00
sa(dp100
Vdomain
p101
Vwww.gumtree.com.au
p102
sVname
p103
Vsc
p104
sVvalue
p105
VbGpUU81WhBGaE1UJy13O
p106
sVexpiry
p107
I1459549112
sVpath
p108
g10
sVhttpOnly
p109
I00
sVsecure
p110
I00
sa(dp111
Vdomain
p112
V.gumtree.com.au
p113
sVname
p114
Vsid2
p115
sVvalue
p116
V1f8b080000000000000015c9b10ac2301006e057b95197dcdddf2444bb646a973a3858c445a4560896060b4af0e9adf06d9f8a780d08b68a90ca00306ad54076311ef2374dd38d9d11da9c556bead2fc2e5482bf7a5bd3f2d9dbf5b6d48ec333334465a5d4a4657ce4c2ff8cb8bf7acfaee393bba4361cd10f73c33f7e47381377000000
p117
sVexpiry
p118
I1774907380
sVpath
p119
g10
sVhttpOnly
p120
I01
sVsecure
p121
I00
sa(dp122
Vdomain
p123
V.gumtree.com.au
p124
sVname
p125
VoptimizelySegments
p126
sVvalue
p127
V%7B%222153921328%22%3A%22none%22%2C%222154850398%22%3A%22direct%22%2C%222179050143%22%3A%22false%22%2C%222181970141%22%3A%22ff%22%7D
p128
sVexpiry
p129
I1774907381
sVpath
p130
g10
sVhttpOnly
p131
I00
sVsecure
p132
I00
sa(dp133
Vdomain
p134
V.gumtree.com.au
p135
sVname
p136
VoptimizelyBuckets
p137
sVvalue
p138
V%7B%7D
p139
sVexpiry
p140
I1774907381
sVpath
p141
g10
sVhttpOnly
p142
I00
sVsecure
p143
I00
sa(dp144
Vdomain
p145
V.gumtree.com.au
p146
sVname
p147
VoptimizelyPendingLogEvents
p148
sVvalue
p149
V%5B%5D
p150
sVexpiry
p151
I1459547396
sVpath
p152
g10
sVhttpOnly
p153
I00
sVsecure
p154
I00
sa(dp155
Vdomain
p156
V.gumtree.com.au
p157
sVname
p158
Vcrtg_rta
p159
sVvalue
p160
Vcto_puma_m_320120%3D1%3B
p161
sVexpiry
p162
I1462142450
sVpath
p163
g10
sVhttpOnly
p164
I00
sVsecure
p165
I00
sa(dp166
Vdomain
p167
V.gumtree.com.au
p168
sVname
p169
V__utma
p170
sVvalue
p171
V160852194.1973958776.1459547295.1459547296.1459547296.1
p172
sVexpiry
p173
I1522619384
sVpath
p174
g10
sVhttpOnly
p175
I00
sVsecure
p176
I00
sa(dp177
Vdomain
p178
V.gumtree.com.au
p179
sVname
p180
V__utmz
p181
sVvalue
p182
V160852194.1459547296.1.1.utmcsr=(direct)|utmccn=(direct)|utmcmd=(none)
p183
sVexpiry
p184
I1475315384
sVpath
p185
g10
sVhttpOnly
p186
I00
sVsecure
p187
I00
sa(dp188
Vdomain
p189
V.gumtree.com.au
p190
sVname
p191
V__utmb
p192
sVvalue
p193
V160852194.3.10.1459547296
p194
sVexpiry
p195
I1459549184
sVpath
p196
g10
sVhttpOnly
p197
I00
sVsecure
p198
I00
sa(dp199
Vdomain
p200
V.gumtree.com.au
p201
sVname
p202
V_ga
p203
sVvalue
p204
VGA1.3.1973958776.1459547295
p205
sVexpiry
p206
I1522619384
sVpath
p207
g10
sVhttpOnly
p208
I00
sVsecure
p209
I00
sa(dp210
Vdomain
p211
Vwww.gumtree.com.au
p212
sVname
p213
Vki_t
p214
sVvalue
p215
V1459547312641%3B1459547312641%3B1459547386735%3B1%3B3
p216
sVexpiry
p217
I1617313786
sVpath
p218
g10
sVhttpOnly
p219
I00
sVsecure
p220
I00
sa(dp221
Vdomain
p222
Vwww.gumtree.com.au
p223
sVname
p224
Vki_r
p225
sVvalue
p226
V
p227
sVexpiry
p228
I1617313786
sVpath
p229
g10
sVhttpOnly
p230
I00
sVsecure
p231
I00
sa.